target datalayout = "e-m:e-p270:32:32-p271:32:32-p272:64:64-i64:64-i128:128-f80:128-n8:16:32:64-S128"
target triple = "x86_64-unknown-linux-gnu"

%struct.VFIOVGARegion = type { %struct.MemoryRegion, i64, i32, %struct.anon }
%struct.MemoryRegion = type { %struct.Object, i8, i8, i8, i8, i8, i8, i8, i8, i8, i8, ptr, ptr, ptr, ptr, ptr, ptr, i32, i128, i64, ptr, i64, i8, i8, i8, i8, i8, ptr, i64, i32, %union.anon, %union.anon.0, %union.anon.1, ptr, i32, ptr, ptr, i8 }
%struct.Object = type { ptr, ptr, ptr, i32, ptr }
%union.anon = type { %struct.QTailQLink }
%struct.QTailQLink = type { ptr, ptr }
%union.anon.0 = type { %struct.QTailQLink }
%union.anon.1 = type { %struct.QTailQLink }
%struct.anon = type { ptr }
%struct.VFIOVGA = type { i64, i32, [3 x %struct.VFIOVGARegion] }
%struct.VFIOPCIDevice = type { %struct.PCIDevice, %struct.VFIODevice, %struct.VFIOINTx, i32, ptr, i64, i32, i64, ptr, i32, ptr, ptr, i32, i32, [6 x %struct.VFIOBAR], ptr, ptr, %struct.PCIHostDeviceAddress, %struct.QemuUUID, %struct.EventNotifier, %struct.EventNotifier, ptr, i32, i32, i32, i32, i32, i32, i32, i32, i32, i32, i32, i8, i8, i8, i8, i8, i8, i8, i8, i8, i8, i8, i8, i8, i8, i32, i8, i8, ptr, %struct.Notifier }
%struct.PCIDevice = type { %struct.DeviceState, i8, i8, ptr, ptr, ptr, ptr, ptr, i32, %struct.PCIReqIDCache, [64 x i8], [7 x %struct.PCIIORegion], %struct.AddressSpace, %struct.MemoryRegion, %struct.MemoryRegion, ptr, ptr, [3 x ptr], i8, i8, i32, i8, i32, ptr, ptr, ptr, ptr, ptr, ptr, %struct.MemoryRegion, %struct.MemoryRegion, %struct.MemoryRegion, ptr, i8, i32, i8, %struct.PCIExpressDevice, ptr, ptr, i32, i8, %struct.MemoryRegion, i32, ptr, ptr, ptr, ptr, ptr, i32 }
%struct.DeviceState = type { %struct.Object, ptr, ptr, i8, i8, i64, ptr, i32, i8, ptr, %struct.NamedGPIOListHead, %struct.NamedClockListHead, %struct.BusStateHead, i32, i32, i32, %struct.ResettableState, ptr, %struct.MemReentrancyGuard }
%struct.NamedGPIOListHead = type { ptr }
%struct.NamedClockListHead = type { ptr }
%struct.BusStateHead = type { ptr }
%struct.ResettableState = type { i32, i8, i8 }
%struct.MemReentrancyGuard = type { i8 }
%struct.PCIReqIDCache = type { ptr, i32 }
%struct.PCIIORegion = type { i64, i64, i8, ptr, ptr }
%struct.AddressSpace = type { %struct.rcu_head, ptr, ptr, ptr, i32, i32, ptr, %union.anon.4, %union.anon.5 }
%struct.rcu_head = type { ptr, ptr }
%union.anon.4 = type { %struct.QTailQLink }
%union.anon.5 = type { %struct.QTailQLink }
%struct.PCIExpressDevice = type { i8, i8, i8, i16, %struct.PCIEAERLog, i16, i16, i16, %struct.PCIESriovPF, %struct.PCIESriovVF }
%struct.PCIEAERLog = type { i16, i16, ptr }
%struct.PCIESriovPF = type { i16, [7 x i8], ptr, ptr }
%struct.PCIESriovVF = type { ptr, i16 }
%struct.VFIODevice = type { %struct.anon.6, %struct.anon.7, %struct.anon.8, ptr, ptr, ptr, ptr, ptr, i32, i32, i8, i8, i8, i8, i32, ptr, i32, i32, i32, ptr, ptr, i32, i8, i8 }
%struct.anon.6 = type { ptr, ptr }
%struct.anon.7 = type { ptr, ptr }
%struct.anon.8 = type { ptr, ptr }
%struct.VFIOINTx = type { i8, i8, i8, %struct.EventNotifier, %struct.EventNotifier, %struct.PCIINTxRoute, i32, ptr }
%struct.PCIINTxRoute = type { i32, i32 }
%struct.VFIOBAR = type { %struct.VFIORegion, ptr, i64, i8, i8, i8, %struct.anon.9 }
%struct.VFIORegion = type { ptr, i64, ptr, i64, i32, i32, ptr, i8 }
%struct.anon.9 = type { ptr }
%struct.PCIHostDeviceAddress = type { i32, i32, i32, i32 }
%struct.QemuUUID = type { %union.anon.10 }
%union.anon.10 = type { %struct.anon.11 }
%struct.anon.11 = type { i32, i16, i16, i8, i8, [6 x i8] }
%struct.EventNotifier = type { i32, i32, i8 }
%struct.Notifier = type { ptr, %struct.anon.12 }
%struct.anon.12 = type { ptr, ptr }

@.str.12 = private unnamed_addr constant [22 x i8] c"../qemu/hw/vfio/pci.c\00", align 1
@.str.22 = private unnamed_addr constant [9 x i8] c"vfio-pci\00", align 1
@.str.23 = private unnamed_addr constant [22 x i8] c"../qemu/hw/vfio/pci.h\00", align 1
@__func__.VFIO_PCI = private unnamed_addr constant [9 x i8] c"VFIO_PCI\00", align 1
@.str.69 = private unnamed_addr constant [10 x i8] c"bar->size\00", align 1
@__PRETTY_FUNCTION__.vfio_bars_finalize = private unnamed_addr constant [41 x i8] c"void vfio_bars_finalize(VFIOPCIDevice *)\00", align 1

; Function Attrs: nounwind sspstrong uwtable
define internal void @vfio_pci_put_device(ptr noundef %vdev) #0 {
entry:
  %vdev.addr = alloca ptr, align 8
  store ptr %vdev, ptr %vdev.addr, align 8
  %0 = load ptr, ptr %vdev.addr, align 8
  %vbasedev = getelementptr inbounds %struct.VFIOPCIDevice, ptr %0, i32 0, i32 1
  call void @vfio_detach_device(ptr noundef %vbasedev)
  %1 = load ptr, ptr %vdev.addr, align 8
  %vbasedev1 = getelementptr inbounds %struct.VFIOPCIDevice, ptr %1, i32 0, i32 1
  %name = getelementptr inbounds %struct.VFIODevice, ptr %vbasedev1, i32 0, i32 6
  %2 = load ptr, ptr %name, align 8
  call void @g_free(ptr noundef %2)
  %3 = load ptr, ptr %vdev.addr, align 8
  %msix = getelementptr inbounds %struct.VFIOPCIDevice, ptr %3, i32 0, i32 11
  %4 = load ptr, ptr %msix, align 8
  call void @g_free(ptr noundef %4)
  ret void
}

; Function Attrs: nounwind sspstrong uwtable
define internal void @vfio_bars_finalize(ptr noundef %vdev) #0 {
entry:
  %vdev.addr = alloca ptr, align 8
  %i = alloca i32, align 4
  %bar = alloca ptr, align 8
  store ptr %vdev, ptr %vdev.addr, align 8
  store i32 0, ptr %i, align 4
  br label %for.cond

for.cond:                                         ; preds = %for.inc, %entry
  %0 = load i32, ptr %i, align 4
  %cmp = icmp slt i32 %0, 6
  br i1 %cmp, label %for.body, label %for.end

for.body:                                         ; preds = %for.cond
  %1 = load ptr, ptr %vdev.addr, align 8
  %bars = getelementptr inbounds %struct.VFIOPCIDevice, ptr %1, i32 0, i32 14
  %2 = load i32, ptr %i, align 4
  %idxprom = sext i32 %2 to i64
  %arrayidx = getelementptr [6 x %struct.VFIOBAR], ptr %bars, i64 0, i64 %idxprom
  store ptr %arrayidx, ptr %bar, align 8
  %3 = load ptr, ptr %vdev.addr, align 8
  %4 = load i32, ptr %i, align 4
  call void @vfio_bar_quirk_finalize(ptr noundef %3, i32 noundef %4)
  %5 = load ptr, ptr %bar, align 8
  %region = getelementptr inbounds %struct.VFIOBAR, ptr %5, i32 0, i32 0
  call void @vfio_region_finalize(ptr noundef %region)
  %6 = load ptr, ptr %bar, align 8
  %mr = getelementptr inbounds %struct.VFIOBAR, ptr %6, i32 0, i32 1
  %7 = load ptr, ptr %mr, align 8
  %tobool = icmp ne ptr %7, null
  br i1 %tobool, label %if.then, label %if.end6

if.then:                                          ; preds = %for.body
  %8 = load ptr, ptr %bar, align 8
  %size = getelementptr inbounds %struct.VFIOBAR, ptr %8, i32 0, i32 2
  %9 = load i64, ptr %size, align 8
  %tobool1 = icmp ne i64 %9, 0
  br i1 %tobool1, label %if.then2, label %if.else

if.then2:                                         ; preds = %if.then
  br label %if.end

if.else:                                          ; preds = %if.then
  call void @__assert_fail(ptr noundef @.str.69, ptr noundef @.str.12, i32 noundef 1823, ptr noundef @__PRETTY_FUNCTION__.vfio_bars_finalize) #17
  unreachable

if.end:                                           ; preds = %if.then2
  %10 = load ptr, ptr %bar, align 8
  %mr3 = getelementptr inbounds %struct.VFIOBAR, ptr %10, i32 0, i32 1
  %11 = load ptr, ptr %mr3, align 8
  call void @object_unparent(ptr noundef %11)
  %12 = load ptr, ptr %bar, align 8
  %mr4 = getelementptr inbounds %struct.VFIOBAR, ptr %12, i32 0, i32 1
  %13 = load ptr, ptr %mr4, align 8
  call void @g_free(ptr noundef %13)
  %14 = load ptr, ptr %bar, align 8
  %mr5 = getelementptr inbounds %struct.VFIOBAR, ptr %14, i32 0, i32 1
  store ptr null, ptr %mr5, align 8
  br label %if.end6

if.end6:                                          ; preds = %if.end, %for.body
  br label %for.inc

for.inc:                                          ; preds = %if.end6
  %15 = load i32, ptr %i, align 4
  %inc = add i32 %15, 1
  store i32 %inc, ptr %i, align 4
  br label %for.cond, !llvm.loop !16

for.end:                                          ; preds = %for.cond
  %16 = load ptr, ptr %vdev.addr, align 8
  %vga = getelementptr inbounds %struct.VFIOPCIDevice, ptr %16, i32 0, i32 15
  %17 = load ptr, ptr %vga, align 8
  %tobool7 = icmp ne ptr %17, null
  br i1 %tobool7, label %if.then8, label %if.end21

if.then8:                                         ; preds = %for.end
  %18 = load ptr, ptr %vdev.addr, align 8
  call void @vfio_vga_quirk_finalize(ptr noundef %18)
  store i32 0, ptr %i, align 4
  br label %for.cond9

for.cond9:                                        ; preds = %for.inc17, %if.then8
  %19 = load i32, ptr %i, align 4
  %conv = sext i32 %19 to i64
  %cmp10 = icmp ult i64 %conv, 3
  br i1 %cmp10, label %for.body12, label %for.end19

for.body12:                                       ; preds = %for.cond9
  %20 = load ptr, ptr %vdev.addr, align 8
  %vga13 = getelementptr inbounds %struct.VFIOPCIDevice, ptr %20, i32 0, i32 15
  %21 = load ptr, ptr %vga13, align 8
  %region14 = getelementptr inbounds %struct.VFIOVGA, ptr %21, i32 0, i32 2
  %22 = load i32, ptr %i, align 4
  %idxprom15 = sext i32 %22 to i64
  %arrayidx16 = getelementptr [3 x %struct.VFIOVGARegion], ptr %region14, i64 0, i64 %idxprom15
  %mem = getelementptr inbounds %struct.VFIOVGARegion, ptr %arrayidx16, i32 0, i32 0
  call void @object_unparent(ptr noundef %mem)
  br label %for.inc17

for.inc17:                                        ; preds = %for.body12
  %23 = load i32, ptr %i, align 4
  %inc18 = add i32 %23, 1
  store i32 %inc18, ptr %i, align 4
  br label %for.cond9, !llvm.loop !17

for.end19:                                        ; preds = %for.cond9
  %24 = load ptr, ptr %vdev.addr, align 8
  %vga20 = getelementptr inbounds %struct.VFIOPCIDevice, ptr %24, i32 0, i32 15
  %25 = load ptr, ptr %vga20, align 8
  call void @g_free(ptr noundef %25)
  br label %if.end21

if.end21:                                         ; preds = %for.end19, %for.end
  ret void
}

; Function Attrs: nounwind sspstrong uwtable
define internal ptr @VFIO_PCI(ptr noundef %obj) #0 {
entry:
  %obj.addr = alloca ptr, align 8
  store ptr %obj, ptr %obj.addr, align 8
  %0 = load ptr, ptr %obj.addr, align 8
  %call = call ptr @object_dynamic_cast_assert(ptr noundef %0, ptr noundef @.str.22, ptr noundef @.str.23, i32 noundef 120, ptr noundef @__func__.VFIO_PCI)
  ret ptr %call
}

; Function Attrs: nounwind sspstrong uwtable
define internal void @vfio_instance_finalize(ptr noundef %obj) #0 {
entry:
  %obj.addr = alloca ptr, align 8
  %vdev = alloca ptr, align 8
  store ptr %obj, ptr %obj.addr, align 8
  %0 = load ptr, ptr %obj.addr, align 8
  %call = call ptr @VFIO_PCI(ptr noundef %0)
  store ptr %call, ptr %vdev, align 8
  %1 = load ptr, ptr %vdev, align 8
  call void @vfio_display_finalize(ptr noundef %1)
  %2 = load ptr, ptr %vdev, align 8
  call void @vfio_bars_finalize(ptr noundef %2)
  %3 = load ptr, ptr %vdev, align 8
  %emulated_config_bits = getelementptr inbounds %struct.VFIOPCIDevice, ptr %3, i32 0, i32 4
  %4 = load ptr, ptr %emulated_config_bits, align 16
  call void @g_free(ptr noundef %4)
  %5 = load ptr, ptr %vdev, align 8
  %rom = getelementptr inbounds %struct.VFIOPCIDevice, ptr %5, i32 0, i32 8
  %6 = load ptr, ptr %rom, align 16
  call void @g_free(ptr noundef %6)
  %7 = load ptr, ptr %vdev, align 8
  call void @vfio_pci_put_device(ptr noundef %7)
  ret void
}