; Function Attrs: nounwind sspstrong uwtable
define internal void @vfio_instance_finalize(ptr noundef %obj) #0 {
entry:
  %call.i = tail call ptr @object_dynamic_cast_assert(ptr noundef %obj, ptr noundef nonnull @.str.22, ptr noundef nonnull @.str.23, i32 noundef 120, ptr noundef nonnull @__func__.VFIO_PCI) #23
  tail call void @vfio_display_finalize(ptr noundef %call.i) #23
  %bars.i = getelementptr inbounds nuw i8, ptr %call.i, i64 2888
  br label %for.body.i

for.body.i:                                       ; preds = %for.inc.i, %entry
  %indvars.iv.i = phi i64 [ 0, %entry ], [ %indvars.iv.next.i, %for.inc.i ]
  %arrayidx.i = getelementptr [6 x %struct.VFIOBAR], ptr %bars.i, i64 0, i64 %indvars.iv.i
  %0 = trunc nuw nsw i64 %indvars.iv.i to i32
  tail call void @vfio_bar_quirk_finalize(ptr noundef %call.i, i32 noundef %0) #23
  tail call void @vfio_region_finalize(ptr noundef %arrayidx.i) #23
  %mr.i = getelementptr inbounds nuw i8, ptr %arrayidx.i, i64 56
  %1 = load ptr, ptr %mr.i, align 8
  %tobool.not.i = icmp eq ptr %1, null
  br i1 %tobool.not.i, label %for.inc.i, label %if.then.i

if.then.i:                                        ; preds = %for.body.i
  %size.i = getelementptr inbounds nuw i8, ptr %arrayidx.i, i64 64
  %2 = load i64, ptr %size.i, align 8
  %tobool1.not.i = icmp eq i64 %2, 0
  br i1 %tobool1.not.i, label %if.else.i, label %if.end.i

if.else.i:                                        ; preds = %if.then.i
  tail call void @__assert_fail(ptr noundef nonnull @.str.69, ptr noundef nonnull @.str.12, i32 noundef 1823, ptr noundef nonnull @__PRETTY_FUNCTION__.vfio_bars_finalize) #22
  unreachable

if.end.i:                                         ; preds = %if.then.i
  tail call void @object_unparent(ptr noundef nonnull %1) #23
  %3 = load ptr, ptr %mr.i, align 8
  tail call void @g_free(ptr noundef %3) #23
  store ptr null, ptr %mr.i, align 8
  br label %for.inc.i

for.inc.i:                                        ; preds = %if.end.i, %for.body.i
  %indvars.iv.next.i = add nuw nsw i64 %indvars.iv.i, 1
  %exitcond.not.i = icmp eq i64 %indvars.iv.next.i, 6
  br i1 %exitcond.not.i, label %for.end.i, label %for.body.i, !llvm.loop !18

for.end.i:                                        ; preds = %for.inc.i
  %vga.i = getelementptr inbounds nuw i8, ptr %call.i, i64 3416
  %4 = load ptr, ptr %vga.i, align 8
  %tobool7.not.i = icmp eq ptr %4, null
  br i1 %tobool7.not.i, label %vfio_bars_finalize.exit, label %if.then8.i

if.then8.i:                                       ; preds = %for.end.i
  tail call void @vfio_vga_quirk_finalize(ptr noundef nonnull %call.i) #23
  br label %for.body12.i

for.body12.i:                                     ; preds = %for.body12.i, %if.then8.i
  %indvars.iv20.i = phi i64 [ 0, %if.then8.i ], [ %indvars.iv.next21.i, %for.body12.i ]
  %5 = load ptr, ptr %vga.i, align 8
  %region14.i = getelementptr inbounds nuw i8, ptr %5, i64 16
  %arrayidx16.i = getelementptr [3 x %struct.VFIOVGARegion], ptr %region14.i, i64 0, i64 %indvars.iv20.i
  tail call void @object_unparent(ptr noundef %arrayidx16.i) #23
  %indvars.iv.next21.i = add nuw nsw i64 %indvars.iv20.i, 1
  %exitcond23.not.i = icmp eq i64 %indvars.iv.next21.i, 3
  br i1 %exitcond23.not.i, label %for.end19.i, label %for.body12.i, !llvm.loop !19

for.end19.i:                                      ; preds = %for.body12.i
  %6 = load ptr, ptr %vga.i, align 8
  tail call void @g_free(ptr noundef %6) #23
  br label %vfio_bars_finalize.exit

vfio_bars_finalize.exit:                          ; preds = %for.end.i, %for.end19.i
  %emulated_config_bits = getelementptr inbounds nuw i8, ptr %call.i, i64 2816
  %7 = load ptr, ptr %emulated_config_bits, align 16
  tail call void @g_free(ptr noundef %7) #23
  %rom = getelementptr inbounds nuw i8, ptr %call.i, i64 2848
  %8 = load ptr, ptr %rom, align 16
  tail call void @g_free(ptr noundef %8) #23
  %vbasedev.i = getelementptr inbounds nuw i8, ptr %call.i, i64 2608
  tail call void @vfio_detach_device(ptr noundef nonnull %vbasedev.i) #23
  %name.i = getelementptr inbounds nuw i8, ptr %call.i, i64 2680
  %9 = load ptr, ptr %name.i, align 8
  tail call void @g_free(ptr noundef %9) #23
  %msix.i = getelementptr inbounds nuw i8, ptr %call.i, i64 2872
  %10 = load ptr, ptr %msix.i, align 8
  tail call void @g_free(ptr noundef %10) #23
  ret void
}